Certificate:
    Data:
        Version: 3 (0x2)   
        Serial Number:
            2b:bc:5c:11:2d:16:db:04:5a:11:4f:98:00:8a:9d:87:ef:e4:f3:5a
        Signature Algorithm: sha256WithRSAEncryption
        Issuer: C = US, ST = North Carolina, L = Asheville, O = "Digital Fruition, LLC", OU = Digital Fruition Certificate Authority, CN = Digital Fruition Root Certificate Authority, emailAddress = ca@digitalfruition.com
        Validity
            Not Before: Jan 15 19:04:52 2024 GMT
            Not After : Jan 13 19:04:52 2034 GMT
        Subject: C = US, ST = North Carolina, L = Asheville, O = "Digital Fruition, LLC", OU = Digital Fruition Certificate Authority, CN = Digital Fruition Root Certificate Authority, emailAddress = ca@digitalfruition.com
        Subject Public Key Info:
            Public Key Algorithm: rsaEncryption
                Public-Key: (2048 bit)
                Modulus:   
                    00:a6:77:5a:0e:27:1e:f1:7b:5b:6a:cf:45:fd:74:
                    78:bc:5a:60:51:3c:e5:41:d6:8f:68:f9:91:e3:23:
                    f5:2c:92:56:d3:67:e7:09:79:67:20:b2:7e:76:71:
                    2e:8a:99:b0:aa:35:51:eb:df:4d:9e:15:97:7c:68:
                    4a:1d:3e:4b:03:c0:8f:a4:f9:87:2f:ac:fb:e4:68:
                    78:3a:89:2a:8f:a0:9d:46:89:78:14:81:6c:00:15:
                    95:e5:b6:ac:4c:c2:f5:28:6b:d7:7d:ee:21:c6:bf:
                    b7:95:ab:79:60:16:18:33:c5:e9:4e:22:cc:98:c6:
                    52:db:a9:6f:40:77:71:7d:35:1d:ac:66:3a:e6:46:
                    a4:37:fb:dd:8a:18:b1:af:7a:2c:26:b4:c0:9f:d0:
                    e6:71:bf:b6:19:74:20:5d:ec:5e:6c:a6:2f:9d:e1:
                    d5:ca:68:62:7f:71:49:76:8b:77:da:c4:e1:32:04:
                    92:d8:18:04:da:47:7d:d2:5c:c5:34:88:49:a1:a4:
                    bf:89:b8:9a:36:2d:ec:8c:b4:62:ae:09:33:05:d2:
                    96:14:67:bf:33:18:4a:e1:16:77:c7:42:39:c1:a3:
                    bf:1b:b7:3b:0d:01:d5:a6:e2:ff:b1:c9:50:de:3c:
                    35:4d:85:95:43:d2:83:c5:7c:26:87:bc:4d:3a:5a:
                    c3:21  
                Exponent: 65537 (0x10001)
        X509v3 extensions: 
            X509v3 Subject Key Identifier:
                2F:B7:75:AA:E0:8E:F8:3F:CE:2F:6B:39:37:38:F7:88:99:F7:E6:82
            X509v3 Authority Key Identifier:
                2F:B7:75:AA:E0:8E:F8:3F:CE:2F:6B:39:37:38:F7:88:99:F7:E6:82
            X509v3 Basic Constraints: critical
                CA:TRUE
            X509v3 Key Usage: critical
                Digital Signature, Certificate Sign, CRL Sign
    Signature Algorithm: sha256WithRSAEncryption
    Signature Value:
        83:66:e6:91:25:46:c1:7f:96:27:7b:3d:8c:bb:3b:8f:0f:ee:
        32:63:22:6d:0b:e6:f7:25:67:73:77:98:52:40:c7:9f:6e:f3:
        62:b1:cf:54:06:1d:d5:63:0a:8b:dd:73:47:12:85:cd:ae:a8:
        14:c7:c4:a3:8e:18:a1:c0:63:6f:41:f4:f4:94:71:cf:f1:32:
        9d:ae:bc:9a:8f:e5:89:d2:5f:8c:52:24:f7:ed:e7:7f:df:98:
        8b:c6:42:28:05:54:4f:0f:0f:42:ce:ab:66:08:05:74:f5:50:
        c9:ee:37:8e:c3:bf:c1:3b:f0:8a:da:22:75:7d:ea:3f:7e:9b:
        69:43:40:ac:93:a4:84:a6:a1:6d:b0:ea:da:c6:3c:9c:80:d1:
        68:be:01:0e:2e:79:31:2b:f2:27:39:04:05:8d:7f:fc:da:c3:
        23:9d:be:6e:5e:ad:e3:00:16:a9:ad:d1:78:c8:b9:ef:32:9b:
        1d:33:49:7d:7b:0c:9d:09:39:d0:df:84:7f:70:88:bc:08:e3:
        19:17:ca:8c:65:a9:4f:6a:4e:0d:ba:24:14:99:d6:d3:6c:4e:
        39:f7:51:f2:65:7b:3f:0d:6b:c8:0a:30:5f:5d:a9:44:b2:00:
        48:b8:88:f0:71:fe:d2:ee:60:a8:fd:02:73:8f:6c:05:b0:ea:
        57:07:ad:8b
-----BEGIN CERTIFICATE-----
MIIEwzCCA6ugAwIBAgIUK7xcES0W2wRaEU+YAIqdh+/k81owDQYJKoZIhvcNAQEL
BQAwgegxCzAJBgNVBAYTAlVTMRcwFQYDVQQIDA5Ob3J0aCBDYXJvbGluYTESMBAG
A1UEBwwJQXNoZXZpbGxlMR4wHAYDVQQKDBVEaWdpdGFsIEZydWl0aW9uLCBMTEMx
LzAtBgNVBAsMJkRpZ2l0YWwgRnJ1aXRpb24gQ2VydGlmaWNhdGUgQXV0aG9yaXR5
MTQwMgYDVQQDDCtEaWdpdGFsIEZydWl0aW9uIFJvb3QgQ2VydGlmaWNhdGUgQXV0
aG9yaXR5MSUwIwYJKoZIhvcNAQkBFhZjYUBkaWdpdGFsZnJ1aXRpb24uY29tMB4X
DTI0MDExNTE5MDQ1MloXDTM0MDExMzE5MDQ1MlowgegxCzAJBgNVBAYTAlVTMRcw
FQYDVQQIDA5Ob3J0aCBDYXJvbGluYTESMBAGA1UEBwwJQXNoZXZpbGxlMR4wHAYD
VQQKDBVEaWdpdGFsIEZydWl0aW9uLCBMTEMxLzAtBgNVBAsMJkRpZ2l0YWwgRnJ1
aXRpb24gQ2VydGlmaWNhdGUgQXV0aG9yaXR5MTQwMgYDVQQDDCtEaWdpdGFsIEZy
dWl0aW9uIFJvb3QgQ2VydGlmaWNhdGUgQXV0aG9yaXR5MSUwIwYJKoZIhvcNAQkB
FhZjYUBkaWdpdGFsZnJ1aXRpb24uY29tMIIBIjANBgkqhkiG9w0BAQEFAAOCAQ8A
MIIBCgKCAQEApndaDice8Xtbas9F/XR4vFpgUTzlQdaPaPmR4yP1LJJW02fnCXln
ILJ+dnEuipmwqjVR699NnhWXfGhKHT5LA8CPpPmHL6z75Gh4Ookqj6CdRol4FIFs
ABWV5basTML1KGvXfe4hxr+3lat5YBYYM8XpTiLMmMZS26lvQHdxfTUdrGY65kak
N/vdihixr3osJrTAn9Dmcb+2GXQgXexebKYvneHVymhif3FJdot32sThMgSS2BgE
2kd90lzFNIhJoaS/ibiaNi3sjLRirgkzBdKWFGe/MxhK4RZ3x0I5waO/G7c7DQHV
puL/sclQ3jw1TYWVQ9KDxXwmh7xNOlrDIQIDAQABo2MwYTAdBgNVHQ4EFgQUL7d1
quCO+D/OL2s5Nzj3iJn35oIwHwYDVR0jBBgwFoAUL7d1quCO+D/OL2s5Nzj3iJn3
5oIwDwYDVR0TAQH/BAUwAwEB/zAOBgNVHQ8BAf8EBAMCAYYwDQYJKoZIhvcNAQEL
BQADggEBAINm5pElRsF/lid7PYy7O48P7jJjIm0L5vclZ3N3mFJAx59u82Kxz1QG
HdVjCovdc0cShc2uqBTHxKOOGKHAY29B9PSUcc/xMp2uvJqP5YnSX4xSJPft53/f
mIvGQigFVE8PD0LOq2YIBXT1UMnuN47Dv8E78IraInV96j9+m2lDQKyTpISmoW2w
6trGPJyA0Wi+AQ4ueTEr8ic5BAWNf/zawyOdvm5ereMAFqmt0XjIue8ymx0zSX17
DJ0JOdDfhH9wiLwI4xkXyoxlqU9qTg26JBSZ1tNsTjn3UfJlez8Na8gKMF9dqUSy
AEi4iPBx/tLuYKj9AnOPbAWw6lcHrYs=
-----END CERTIFICATE-----  
